; Function Attrs: mustprogress nofree norecurse nosync nounwind willreturn memory(readwrite, inaccessiblemem: none) uwtable
define dso_local void @_ZN4node4quic6Stream8ScheduleEPNS_8ListHeadIS1_XadL_ZNS1_13stream_queue_EEEEE(ptr noundef nonnull align 8 dereferenceable(256) %this, ptr noundef %queue) local_unnamed_addr #14 align 2 {
entry:
  %ptr_.i.i = getelementptr inbounds i8, ptr %this, i64 144
  %0 = load ptr, ptr %ptr_.i.i, align 8
  %destroyed.i = getelementptr inbounds i8, ptr %0, i64 12
  %1 = load i8, ptr %destroyed.i, align 4
  %tobool.i = icmp eq i8 %1, 0
  %outbound_ = getelementptr inbounds i8, ptr %this, i64 176
  %2 = load ptr, ptr %outbound_, align 8
  %cmp.i = icmp ne ptr %2, null
  %or.cond = select i1 %tobool.i, i1 %cmp.i, i1 false
  br i1 %or.cond, label %land.lhs.true3, label %if.end

land.lhs.true3:                                   ; preds = %entry
  %stream_queue_ = getelementptr inbounds i8, ptr %this, i64 240
  %3 = load ptr, ptr %stream_queue_, align 8
  %cmp.i1 = icmp eq ptr %3, %stream_queue_
  br i1 %cmp.i1, label %if.then, label %if.end

if.then:                                          ; preds = %land.lhs.true3
  %4 = load ptr, ptr %queue, align 8
  %next_.i = getelementptr inbounds i8, ptr %4, i64 8
  store ptr %stream_queue_, ptr %next_.i, align 8
  %5 = load ptr, ptr %queue, align 8
  store ptr %5, ptr %stream_queue_, align 8
  %next_6.i = getelementptr inbounds i8, ptr %this, i64 248
  store ptr %queue, ptr %next_6.i, align 8
  store ptr %stream_queue_, ptr %queue, align 8
  br label %if.end

if.end:                                           ; preds = %if.then, %land.lhs.true3, %entry
  ret void
}